; Function Attrs: mustprogress uwtable
define dso_local void @_ZN22btBvhTriangleMeshShape17performConvexcastEP18btTriangleCallbackRK9btVector3S4_S4_S4_(ptr nocapture noundef nonnull readonly align 8 dereferenceable(109) %this, ptr noundef %callback, ptr noundef nonnull align 4 dereferenceable(16) %raySource, ptr noundef nonnull align 4 dereferenceable(16) %rayTarget, ptr noundef nonnull align 4 dereferenceable(16) %aabbMin, ptr noundef nonnull align 4 dereferenceable(16) %aabbMax) local_unnamed_addr #0 align 2 personality ptr @__gxx_personality_v0 {
entry:
  %myNodeCallback = alloca %struct.MyNodeOverlapCallback.8, align 8
  %m_meshInterface = getelementptr inbounds i8, ptr %this, i64 72
  %0 = load ptr, ptr %m_meshInterface, align 8
  store ptr getelementptr inbounds ({ [5 x ptr] }, ptr @_ZTVZN22btBvhTriangleMeshShape17performConvexcastEP18btTriangleCallbackRK9btVector3S4_S4_S4_E21MyNodeOverlapCallback, i64 0, i32 0, i64 2), ptr %myNodeCallback, align 8
  %m_meshInterface.i = getelementptr inbounds i8, ptr %myNodeCallback, i64 8
  store ptr %0, ptr %m_meshInterface.i, align 8
  %m_callback.i = getelementptr inbounds i8, ptr %myNodeCallback, i64 16
  store ptr %callback, ptr %m_callback.i, align 8
  %m_bvh = getelementptr inbounds i8, ptr %this, i64 80
  %1 = load ptr, ptr %m_bvh, align 8
  call void @_ZNK14btQuantizedBvh29reportBoxCastOverlappingNodexEP21btNodeOverlapCallbackRK9btVector3S4_S4_S4_(ptr noundef nonnull align 8 dereferenceable(244) %1, ptr noundef nonnull %myNodeCallback, ptr noundef nonnull align 4 dereferenceable(16) %raySource, ptr noundef nonnull align 4 dereferenceable(16) %rayTarget, ptr noundef nonnull align 4 dereferenceable(16) %aabbMin, ptr noundef nonnull align 4 dereferenceable(16) %aabbMax)
  ret void
}